target datalayout = "e-m:e-p270:32:32-p271:32:32-p272:64:64-i64:64-i128:128-f80:128-n8:16:32:64-S128"
target triple = "x86_64-pc-linux-gnu"

%struct.psset_stats_s = type { %struct.psset_bin_stats_s, [2 x %struct.psset_bin_stats_s], [64 x [2 x %struct.psset_bin_stats_s]], [2 x %struct.psset_bin_stats_s], [2 x %struct.psset_bin_stats_s] }
%struct.psset_bin_stats_s = type { i64, i64, i64 }

; Function Attrs: nounwind uwtable
define internal void @psset_bin_stats_accum(ptr noundef %0, ptr noundef %1) #0 {
  %3 = alloca ptr, align 8
  %4 = alloca ptr, align 8
  store ptr %0, ptr %3, align 8, !tbaa !27
  store ptr %1, ptr %4, align 8, !tbaa !27
  %5 = load ptr, ptr %4, align 8, !tbaa !27
  %6 = getelementptr inbounds nuw %struct.psset_bin_stats_s, ptr %5, i32 0, i32 0
  %7 = load i64, ptr %6, align 8, !tbaa !29
  %8 = load ptr, ptr %3, align 8, !tbaa !27
  %9 = getelementptr inbounds nuw %struct.psset_bin_stats_s, ptr %8, i32 0, i32 0
  %10 = load i64, ptr %9, align 8, !tbaa !29
  %11 = add i64 %10, %7
  store i64 %11, ptr %9, align 8, !tbaa !29
  %12 = load ptr, ptr %4, align 8, !tbaa !27
  %13 = getelementptr inbounds nuw %struct.psset_bin_stats_s, ptr %12, i32 0, i32 1
  %14 = load i64, ptr %13, align 8, !tbaa !31
  %15 = load ptr, ptr %3, align 8, !tbaa !27
  %16 = getelementptr inbounds nuw %struct.psset_bin_stats_s, ptr %15, i32 0, i32 1
  %17 = load i64, ptr %16, align 8, !tbaa !31
  %18 = add i64 %17, %14
  store i64 %18, ptr %16, align 8, !tbaa !31
  %19 = load ptr, ptr %4, align 8, !tbaa !27
  %20 = getelementptr inbounds nuw %struct.psset_bin_stats_s, ptr %19, i32 0, i32 2
  %21 = load i64, ptr %20, align 8, !tbaa !32
  %22 = load ptr, ptr %3, align 8, !tbaa !27
  %23 = getelementptr inbounds nuw %struct.psset_bin_stats_s, ptr %22, i32 0, i32 2
  %24 = load i64, ptr %23, align 8, !tbaa !32
  %25 = add i64 %24, %21
  store i64 %25, ptr %23, align 8, !tbaa !32
  ret void
}

; Function Attrs: nounwind uwtable
define hidden void @je_psset_stats_accum(ptr noundef %0, ptr noundef %1) #0 {
  %3 = alloca ptr, align 8
  %4 = alloca ptr, align 8
  %5 = alloca i32, align 4
  %6 = alloca i32, align 4
  store ptr %0, ptr %3, align 8, !tbaa !23
  store ptr %1, ptr %4, align 8, !tbaa !23
  %7 = load ptr, ptr %3, align 8, !tbaa !23
  %8 = getelementptr inbounds nuw %struct.psset_stats_s, ptr %7, i32 0, i32 0
  %9 = load ptr, ptr %4, align 8, !tbaa !23
  %10 = getelementptr inbounds nuw %struct.psset_stats_s, ptr %9, i32 0, i32 0
  call void @psset_bin_stats_accum(ptr noundef %8, ptr noundef %10)
  call void @llvm.lifetime.start.p0(i64 4, ptr %5) #9
  store i32 0, ptr %5, align 4, !tbaa !9
  br label %11

11:                                               ; preds = %46, %2
  %12 = load i32, ptr %5, align 4, !tbaa !9
  %13 = icmp slt i32 %12, 2
  br i1 %13, label %15, label %14

14:                                               ; preds = %11
  call void @llvm.lifetime.end.p0(i64 4, ptr %5) #9
  br label %49

15:                                               ; preds = %11
  %16 = load ptr, ptr %3, align 8, !tbaa !23
  %17 = getelementptr inbounds nuw %struct.psset_stats_s, ptr %16, i32 0, i32 1
  %18 = load i32, ptr %5, align 4, !tbaa !9
  %19 = sext i32 %18 to i64
  %20 = getelementptr inbounds [2 x %struct.psset_bin_stats_s], ptr %17, i64 0, i64 %19
  %21 = load ptr, ptr %4, align 8, !tbaa !23
  %22 = getelementptr inbounds nuw %struct.psset_stats_s, ptr %21, i32 0, i32 1
  %23 = load i32, ptr %5, align 4, !tbaa !9
  %24 = sext i32 %23 to i64
  %25 = getelementptr inbounds [2 x %struct.psset_bin_stats_s], ptr %22, i64 0, i64 %24
  call void @psset_bin_stats_accum(ptr noundef %20, ptr noundef %25)
  %26 = load ptr, ptr %3, align 8, !tbaa !23
  %27 = getelementptr inbounds nuw %struct.psset_stats_s, ptr %26, i32 0, i32 3
  %28 = load i32, ptr %5, align 4, !tbaa !9
  %29 = sext i32 %28 to i64
  %30 = getelementptr inbounds [2 x %struct.psset_bin_stats_s], ptr %27, i64 0, i64 %29
  %31 = load ptr, ptr %4, align 8, !tbaa !23
  %32 = getelementptr inbounds nuw %struct.psset_stats_s, ptr %31, i32 0, i32 3
  %33 = load i32, ptr %5, align 4, !tbaa !9
  %34 = sext i32 %33 to i64
  %35 = getelementptr inbounds [2 x %struct.psset_bin_stats_s], ptr %32, i64 0, i64 %34
  call void @psset_bin_stats_accum(ptr noundef %30, ptr noundef %35)
  %36 = load ptr, ptr %3, align 8, !tbaa !23
  %37 = getelementptr inbounds nuw %struct.psset_stats_s, ptr %36, i32 0, i32 4
  %38 = load i32, ptr %5, align 4, !tbaa !9
  %39 = sext i32 %38 to i64
  %40 = getelementptr inbounds [2 x %struct.psset_bin_stats_s], ptr %37, i64 0, i64 %39
  %41 = load ptr, ptr %4, align 8, !tbaa !23
  %42 = getelementptr inbounds nuw %struct.psset_stats_s, ptr %41, i32 0, i32 4
  %43 = load i32, ptr %5, align 4, !tbaa !9
  %44 = sext i32 %43 to i64
  %45 = getelementptr inbounds [2 x %struct.psset_bin_stats_s], ptr %42, i64 0, i64 %44
  call void @psset_bin_stats_accum(ptr noundef %40, ptr noundef %45)
  br label %46

46:                                               ; preds = %15
  %47 = load i32, ptr %5, align 4, !tbaa !9
  %48 = add nsw i32 %47, 1
  store i32 %48, ptr %5, align 4, !tbaa !9
  br label %11, !llvm.loop !25

49:                                               ; preds = %14
  call void @llvm.lifetime.start.p0(i64 4, ptr %6) #9
  store i32 0, ptr %6, align 4, !tbaa !9
  br label %50

50:                                               ; preds = %79, %49
  %51 = load i32, ptr %6, align 4, !tbaa !9
  %52 = icmp ult i32 %51, 64
  br i1 %52, label %54, label %53

53:                                               ; preds = %50
  call void @llvm.lifetime.end.p0(i64 4, ptr %6) #9
  br label %82

54:                                               ; preds = %50
  %55 = load ptr, ptr %3, align 8, !tbaa !23
  %56 = getelementptr inbounds nuw %struct.psset_stats_s, ptr %55, i32 0, i32 2
  %57 = load i32, ptr %6, align 4, !tbaa !9
  %58 = zext i32 %57 to i64
  %59 = getelementptr inbounds nuw [64 x [2 x %struct.psset_bin_stats_s]], ptr %56, i64 0, i64 %58
  %60 = getelementptr inbounds [2 x %struct.psset_bin_stats_s], ptr %59, i64 0, i64 0
  %61 = load ptr, ptr %4, align 8, !tbaa !23
  %62 = getelementptr inbounds nuw %struct.psset_stats_s, ptr %61, i32 0, i32 2
  %63 = load i32, ptr %6, align 4, !tbaa !9
  %64 = zext i32 %63 to i64
  %65 = getelementptr inbounds nuw [64 x [2 x %struct.psset_bin_stats_s]], ptr %62, i64 0, i64 %64
  %66 = getelementptr inbounds [2 x %struct.psset_bin_stats_s], ptr %65, i64 0, i64 0
  call void @psset_bin_stats_accum(ptr noundef %60, ptr noundef %66)
  %67 = load ptr, ptr %3, align 8, !tbaa !23
  %68 = getelementptr inbounds nuw %struct.psset_stats_s, ptr %67, i32 0, i32 2
  %69 = load i32, ptr %6, align 4, !tbaa !9
  %70 = zext i32 %69 to i64
  %71 = getelementptr inbounds nuw [64 x [2 x %struct.psset_bin_stats_s]], ptr %68, i64 0, i64 %70
  %72 = getelementptr inbounds [2 x %struct.psset_bin_stats_s], ptr %71, i64 0, i64 1
  %73 = load ptr, ptr %4, align 8, !tbaa !23
  %74 = getelementptr inbounds nuw %struct.psset_stats_s, ptr %73, i32 0, i32 2
  %75 = load i32, ptr %6, align 4, !tbaa !9
  %76 = zext i32 %75 to i64
  %77 = getelementptr inbounds nuw [64 x [2 x %struct.psset_bin_stats_s]], ptr %74, i64 0, i64 %76
  %78 = getelementptr inbounds [2 x %struct.psset_bin_stats_s], ptr %77, i64 0, i64 1
  call void @psset_bin_stats_accum(ptr noundef %72, ptr noundef %78)
  br label %79

79:                                               ; preds = %54
  %80 = load i32, ptr %6, align 4, !tbaa !9
  %81 = add i32 %80, 1
  store i32 %81, ptr %6, align 4, !tbaa !9
  br label %50, !llvm.loop !26

82:                                               ; preds = %53
  ret void
}