; Function Attrs: nofree norecurse nosync nounwind memory(argmem: readwrite) uwtable
define hidden void @je_psset_stats_accum(ptr noundef captures(none) %0, ptr noundef readonly captures(none) %1) local_unnamed_addr #3 {
  %3 = load i64, ptr %1, align 8, !tbaa !6
  %4 = load i64, ptr %0, align 8, !tbaa !6
  %5 = add i64 %4, %3
  store i64 %5, ptr %0, align 8, !tbaa !6
  %6 = getelementptr inbounds nuw i8, ptr %1, i64 8
  %7 = load i64, ptr %6, align 8, !tbaa !11
  %8 = getelementptr inbounds nuw i8, ptr %0, i64 8
  %9 = load i64, ptr %8, align 8, !tbaa !11
  %10 = add i64 %9, %7
  store i64 %10, ptr %8, align 8, !tbaa !11
  %11 = getelementptr inbounds nuw i8, ptr %1, i64 16
  %12 = load i64, ptr %11, align 8, !tbaa !12
  %13 = getelementptr inbounds nuw i8, ptr %0, i64 16
  %14 = load i64, ptr %13, align 8, !tbaa !12
  %15 = add i64 %14, %12
  store i64 %15, ptr %13, align 8, !tbaa !12
  %16 = getelementptr inbounds nuw i8, ptr %0, i64 24
  %17 = getelementptr inbounds nuw i8, ptr %1, i64 24
  %18 = getelementptr inbounds nuw i8, ptr %0, i64 3144
  %19 = getelementptr inbounds nuw i8, ptr %1, i64 3144
  %20 = getelementptr inbounds nuw i8, ptr %0, i64 3192
  %21 = getelementptr inbounds nuw i8, ptr %1, i64 3192
  br label %24

.preheader:                                       ; preds = %24
  %22 = getelementptr inbounds nuw i8, ptr %0, i64 72
  %23 = getelementptr inbounds nuw i8, ptr %1, i64 72
  br label %72

24:                                               ; preds = %2, %24
  %25 = phi i1 [ true, %2 ], [ false, %24 ]
  %indvars.iv = phi i64 [ 0, %2 ], [ 1, %24 ]
  %26 = getelementptr inbounds nuw [2 x %struct.psset_bin_stats_s], ptr %16, i64 0, i64 %indvars.iv
  %27 = getelementptr inbounds nuw [2 x %struct.psset_bin_stats_s], ptr %17, i64 0, i64 %indvars.iv
  %28 = load i64, ptr %27, align 8, !tbaa !6
  %29 = load i64, ptr %26, align 8, !tbaa !6
  %30 = add i64 %29, %28
  store i64 %30, ptr %26, align 8, !tbaa !6
  %31 = getelementptr inbounds nuw i8, ptr %27, i64 8
  %32 = load i64, ptr %31, align 8, !tbaa !11
  %33 = getelementptr inbounds nuw i8, ptr %26, i64 8
  %34 = load i64, ptr %33, align 8, !tbaa !11
  %35 = add i64 %34, %32
  store i64 %35, ptr %33, align 8, !tbaa !11
  %36 = getelementptr inbounds nuw i8, ptr %27, i64 16
  %37 = load i64, ptr %36, align 8, !tbaa !12
  %38 = getelementptr inbounds nuw i8, ptr %26, i64 16
  %39 = load i64, ptr %38, align 8, !tbaa !12
  %40 = add i64 %39, %37
  store i64 %40, ptr %38, align 8, !tbaa !12
  %41 = getelementptr inbounds nuw [2 x %struct.psset_bin_stats_s], ptr %18, i64 0, i64 %indvars.iv
  %42 = getelementptr inbounds nuw [2 x %struct.psset_bin_stats_s], ptr %19, i64 0, i64 %indvars.iv
  %43 = load i64, ptr %42, align 8, !tbaa !6
  %44 = load i64, ptr %41, align 8, !tbaa !6
  %45 = add i64 %44, %43
  store i64 %45, ptr %41, align 8, !tbaa !6
  %46 = getelementptr inbounds nuw i8, ptr %42, i64 8
  %47 = load i64, ptr %46, align 8, !tbaa !11
  %48 = getelementptr inbounds nuw i8, ptr %41, i64 8
  %49 = load i64, ptr %48, align 8, !tbaa !11
  %50 = add i64 %49, %47
  store i64 %50, ptr %48, align 8, !tbaa !11
  %51 = getelementptr inbounds nuw i8, ptr %42, i64 16
  %52 = load i64, ptr %51, align 8, !tbaa !12
  %53 = getelementptr inbounds nuw i8, ptr %41, i64 16
  %54 = load i64, ptr %53, align 8, !tbaa !12
  %55 = add i64 %54, %52
  store i64 %55, ptr %53, align 8, !tbaa !12
  %56 = getelementptr inbounds nuw [2 x %struct.psset_bin_stats_s], ptr %20, i64 0, i64 %indvars.iv
  %57 = getelementptr inbounds nuw [2 x %struct.psset_bin_stats_s], ptr %21, i64 0, i64 %indvars.iv
  %58 = load i64, ptr %57, align 8, !tbaa !6
  %59 = load i64, ptr %56, align 8, !tbaa !6
  %60 = add i64 %59, %58
  store i64 %60, ptr %56, align 8, !tbaa !6
  %61 = getelementptr inbounds nuw i8, ptr %57, i64 8
  %62 = load i64, ptr %61, align 8, !tbaa !11
  %63 = getelementptr inbounds nuw i8, ptr %56, i64 8
  %64 = load i64, ptr %63, align 8, !tbaa !11
  %65 = add i64 %64, %62
  store i64 %65, ptr %63, align 8, !tbaa !11
  %66 = getelementptr inbounds nuw i8, ptr %57, i64 16
  %67 = load i64, ptr %66, align 8, !tbaa !12
  %68 = getelementptr inbounds nuw i8, ptr %56, i64 16
  %69 = load i64, ptr %68, align 8, !tbaa !12
  %70 = add i64 %69, %67
  store i64 %70, ptr %68, align 8, !tbaa !12
  br i1 %25, label %24, label %.preheader, !llvm.loop !13

71:                                               ; preds = %72
  ret void

72:                                               ; preds = %.preheader, %72
  %indvars.iv29 = phi i64 [ 0, %.preheader ], [ %indvars.iv.next30, %72 ]
  %73 = getelementptr inbounds nuw [64 x [2 x %struct.psset_bin_stats_s]], ptr %22, i64 0, i64 %indvars.iv29
  %74 = getelementptr inbounds nuw [64 x [2 x %struct.psset_bin_stats_s]], ptr %23, i64 0, i64 %indvars.iv29
  %75 = load i64, ptr %74, align 8, !tbaa !6
  %76 = load i64, ptr %73, align 8, !tbaa !6
  %77 = add i64 %76, %75
  store i64 %77, ptr %73, align 8, !tbaa !6
  %78 = getelementptr inbounds nuw i8, ptr %74, i64 8
  %79 = load i64, ptr %78, align 8, !tbaa !11
  %80 = getelementptr inbounds nuw i8, ptr %73, i64 8
  %81 = load i64, ptr %80, align 8, !tbaa !11
  %82 = add i64 %81, %79
  store i64 %82, ptr %80, align 8, !tbaa !11
  %83 = getelementptr inbounds nuw i8, ptr %74, i64 16
  %84 = load i64, ptr %83, align 8, !tbaa !12
  %85 = getelementptr inbounds nuw i8, ptr %73, i64 16
  %86 = load i64, ptr %85, align 8, !tbaa !12
  %87 = add i64 %86, %84
  store i64 %87, ptr %85, align 8, !tbaa !12
  %88 = getelementptr inbounds nuw i8, ptr %73, i64 24
  %89 = getelementptr inbounds nuw i8, ptr %74, i64 24
  %90 = load i64, ptr %89, align 8, !tbaa !6
  %91 = load i64, ptr %88, align 8, !tbaa !6
  %92 = add i64 %91, %90
  store i64 %92, ptr %88, align 8, !tbaa !6
  %93 = getelementptr inbounds nuw i8, ptr %74, i64 32
  %94 = load i64, ptr %93, align 8, !tbaa !11
  %95 = getelementptr inbounds nuw i8, ptr %73, i64 32
  %96 = load i64, ptr %95, align 8, !tbaa !11
  %97 = add i64 %96, %94
  store i64 %97, ptr %95, align 8, !tbaa !11
  %98 = getelementptr inbounds nuw i8, ptr %74, i64 40
  %99 = load i64, ptr %98, align 8, !tbaa !12
  %100 = getelementptr inbounds nuw i8, ptr %73, i64 40
  %101 = load i64, ptr %100, align 8, !tbaa !12
  %102 = add i64 %101, %99
  store i64 %102, ptr %100, align 8, !tbaa !12
  %indvars.iv.next30 = add nuw nsw i64 %indvars.iv29, 1
  %exitcond.not = icmp eq i64 %indvars.iv.next30, 64
  br i1 %exitcond.not, label %71, label %72, !llvm.loop !14
}